target datalayout = "e-m:e-p270:32:32-p271:32:32-p272:64:64-i64:64-i128:128-f80:128-n8:16:32:64-S128"
target triple = "x86_64-pc-linux-gnu"

; Function Attrs: mustprogress uwtable
define noundef i32 @_ZN6icu_7717StringTrieBuilder9writeNodeEiii(ptr noundef nonnull align 8 dereferenceable(16) %0, i32 noundef %1, i32 noundef %2, i32 noundef %3) #2 align 2 {
  %5 = alloca i32, align 4
  %6 = alloca ptr, align 8
  %7 = alloca i32, align 4
  %8 = alloca i32, align 4
  %9 = alloca i32, align 4
  %10 = alloca i8, align 1
  %11 = alloca i32, align 4
  %12 = alloca i32, align 4
  %13 = alloca i32, align 4
  %14 = alloca i32, align 4
  %15 = alloca i32, align 4
  %16 = alloca i32, align 4
  %17 = alloca i32, align 4
  %18 = alloca i32, align 4
  %19 = alloca i32, align 4
  store ptr %0, ptr %6, align 8, !tbaa !3
  store i32 %1, ptr %7, align 4, !tbaa !16
  store i32 %2, ptr %8, align 4, !tbaa !16
  store i32 %3, ptr %9, align 4, !tbaa !16
  %20 = load ptr, ptr %6, align 8
  call void @llvm.lifetime.start.p0(i64 1, ptr %10) #9
  store i8 0, ptr %10, align 1, !tbaa !21
  call void @llvm.lifetime.start.p0(i64 4, ptr %11) #9
  store i32 0, ptr %11, align 4, !tbaa !16
  call void @llvm.lifetime.start.p0(i64 4, ptr %12) #9
  %21 = load i32, ptr %9, align 4, !tbaa !16
  %22 = load i32, ptr %7, align 4, !tbaa !16
  %23 = load ptr, ptr %20, align 8, !tbaa !8
  %24 = getelementptr inbounds ptr, ptr %23, i64 3
  %25 = load ptr, ptr %24, align 8
  %26 = call noundef i32 %25(ptr noundef nonnull align 8 dereferenceable(16) %20, i32 noundef %22)
  %27 = icmp eq i32 %21, %26
  br i1 %27, label %28, label %45

28:                                               ; preds = %4
  %29 = load i32, ptr %7, align 4, !tbaa !16
  %30 = add nsw i32 %29, 1
  store i32 %30, ptr %7, align 4, !tbaa !16
  %31 = load ptr, ptr %20, align 8, !tbaa !8
  %32 = getelementptr inbounds ptr, ptr %31, i64 5
  %33 = load ptr, ptr %32, align 8
  %34 = call noundef i32 %33(ptr noundef nonnull align 8 dereferenceable(16) %20, i32 noundef %29)
  store i32 %34, ptr %11, align 4, !tbaa !16
  %35 = load i32, ptr %7, align 4, !tbaa !16
  %36 = load i32, ptr %8, align 4, !tbaa !16
  %37 = icmp eq i32 %35, %36
  br i1 %37, label %38, label %44

38:                                               ; preds = %28
  %39 = load i32, ptr %11, align 4, !tbaa !16
  %40 = load ptr, ptr %20, align 8, !tbaa !8
  %41 = getelementptr inbounds ptr, ptr %40, i64 17
  %42 = load ptr, ptr %41, align 8
  %43 = call noundef i32 %42(ptr noundef nonnull align 8 dereferenceable(16) %20, i32 noundef %39, i8 noundef signext 1)
  store i32 %43, ptr %5, align 4
  store i32 1, ptr %13, align 4
  br label %165

44:                                               ; preds = %28
  store i8 1, ptr %10, align 1, !tbaa !21
  br label %45

45:                                               ; preds = %44, %4
  call void @llvm.lifetime.start.p0(i64 4, ptr %14) #9
  %46 = load i32, ptr %7, align 4, !tbaa !16
  %47 = load i32, ptr %9, align 4, !tbaa !16
  %48 = load ptr, ptr %20, align 8, !tbaa !8
  %49 = getelementptr inbounds ptr, ptr %48, i64 4
  %50 = load ptr, ptr %49, align 8
  %51 = call noundef zeroext i16 %50(ptr noundef nonnull align 8 dereferenceable(16) %20, i32 noundef %46, i32 noundef %47)
  %52 = zext i16 %51 to i32
  store i32 %52, ptr %14, align 4, !tbaa !16
  call void @llvm.lifetime.start.p0(i64 4, ptr %15) #9
  %53 = load i32, ptr %8, align 4, !tbaa !16
  %54 = sub nsw i32 %53, 1
  %55 = load i32, ptr %9, align 4, !tbaa !16
  %56 = load ptr, ptr %20, align 8, !tbaa !8
  %57 = getelementptr inbounds ptr, ptr %56, i64 4
  %58 = load ptr, ptr %57, align 8
  %59 = call noundef zeroext i16 %58(ptr noundef nonnull align 8 dereferenceable(16) %20, i32 noundef %54, i32 noundef %55)
  %60 = zext i16 %59 to i32
  store i32 %60, ptr %15, align 4, !tbaa !16
  %61 = load i32, ptr %14, align 4, !tbaa !16
  %62 = load i32, ptr %15, align 4, !tbaa !16
  %63 = icmp eq i32 %61, %62
  br i1 %63, label %64, label %128

64:                                               ; preds = %45
  call void @llvm.lifetime.start.p0(i64 4, ptr %16) #9
  %65 = load i32, ptr %7, align 4, !tbaa !16
  %66 = load i32, ptr %8, align 4, !tbaa !16
  %67 = sub nsw i32 %66, 1
  %68 = load i32, ptr %9, align 4, !tbaa !16
  %69 = load ptr, ptr %20, align 8, !tbaa !8
  %70 = getelementptr inbounds ptr, ptr %69, i64 6
  %71 = load ptr, ptr %70, align 8
  %72 = call noundef i32 %71(ptr noundef nonnull align 8 dereferenceable(16) %20, i32 noundef %65, i32 noundef %67, i32 noundef %68)
  store i32 %72, ptr %16, align 4, !tbaa !16
  %73 = load i32, ptr %7, align 4, !tbaa !16
  %74 = load i32, ptr %8, align 4, !tbaa !16
  %75 = load i32, ptr %16, align 4, !tbaa !16
  %76 = call noundef i32 @_ZN6icu_7717StringTrieBuilder9writeNodeEiii(ptr noundef nonnull align 8 dereferenceable(16) %20, i32 noundef %73, i32 noundef %74, i32 noundef %75)
  call void @llvm.lifetime.start.p0(i64 4, ptr %17) #9
  %77 = load i32, ptr %16, align 4, !tbaa !16
  %78 = load i32, ptr %9, align 4, !tbaa !16
  %79 = sub nsw i32 %77, %78
  store i32 %79, ptr %17, align 4, !tbaa !16
  call void @llvm.lifetime.start.p0(i64 4, ptr %18) #9
  %80 = load ptr, ptr %20, align 8, !tbaa !8
  %81 = getelementptr inbounds ptr, ptr %80, i64 13
  %82 = load ptr, ptr %81, align 8
  %83 = call noundef i32 %82(ptr noundef nonnull align 8 dereferenceable(16) %20)
  store i32 %83, ptr %18, align 4, !tbaa !16
  br label %84

84:                                               ; preds = %88, %64
  %85 = load i32, ptr %17, align 4, !tbaa !16
  %86 = load i32, ptr %18, align 4, !tbaa !16
  %87 = icmp sgt i32 %85, %86
  br i1 %87, label %88, label %113

88:                                               ; preds = %84
  %89 = load i32, ptr %18, align 4, !tbaa !16
  %90 = load i32, ptr %16, align 4, !tbaa !16
  %91 = sub nsw i32 %90, %89
  store i32 %91, ptr %16, align 4, !tbaa !16
  %92 = load i32, ptr %18, align 4, !tbaa !16
  %93 = load i32, ptr %17, align 4, !tbaa !16
  %94 = sub nsw i32 %93, %92
  store i32 %94, ptr %17, align 4, !tbaa !16
  %95 = load i32, ptr %7, align 4, !tbaa !16
  %96 = load i32, ptr %16, align 4, !tbaa !16
  %97 = load i32, ptr %18, align 4, !tbaa !16
  %98 = load ptr, ptr %20, align 8, !tbaa !8
  %99 = getelementptr inbounds ptr, ptr %98, i64 16
  %100 = load ptr, ptr %99, align 8
  %101 = call noundef i32 %100(ptr noundef nonnull align 8 dereferenceable(16) %20, i32 noundef %95, i32 noundef %96, i32 noundef %97)
  %102 = load ptr, ptr %20, align 8, !tbaa !8
  %103 = getelementptr inbounds ptr, ptr %102, i64 12
  %104 = load ptr, ptr %103, align 8
  %105 = call noundef i32 %104(ptr noundef nonnull align 8 dereferenceable(16) %20)
  %106 = load i32, ptr %18, align 4, !tbaa !16
  %107 = add nsw i32 %105, %106
  %108 = sub nsw i32 %107, 1
  %109 = load ptr, ptr %20, align 8, !tbaa !8
  %110 = getelementptr inbounds ptr, ptr %109, i64 15
  %111 = load ptr, ptr %110, align 8
  %112 = call noundef i32 %111(ptr noundef nonnull align 8 dereferenceable(16) %20, i32 noundef %108)
  br label %84, !llvm.loop !26

113:                                              ; preds = %84
  %114 = load i32, ptr %7, align 4, !tbaa !16
  %115 = load i32, ptr %9, align 4, !tbaa !16
  %116 = load i32, ptr %17, align 4, !tbaa !16
  %117 = load ptr, ptr %20, align 8, !tbaa !8
  %118 = getelementptr inbounds ptr, ptr %117, i64 16
  %119 = load ptr, ptr %118, align 8
  %120 = call noundef i32 %119(ptr noundef nonnull align 8 dereferenceable(16) %20, i32 noundef %114, i32 noundef %115, i32 noundef %116)
  %121 = load ptr, ptr %20, align 8, !tbaa !8
  %122 = getelementptr inbounds ptr, ptr %121, i64 12
  %123 = load ptr, ptr %122, align 8
  %124 = call noundef i32 %123(ptr noundef nonnull align 8 dereferenceable(16) %20)
  %125 = load i32, ptr %17, align 4, !tbaa !16
  %126 = add nsw i32 %124, %125
  %127 = sub nsw i32 %126, 1
  store i32 %127, ptr %12, align 4, !tbaa !16
  call void @llvm.lifetime.end.p0(i64 4, ptr %18) #9
  call void @llvm.lifetime.end.p0(i64 4, ptr %17) #9
  call void @llvm.lifetime.end.p0(i64 4, ptr %16) #9
  br label %157

128:                                              ; preds = %45
  call void @llvm.lifetime.start.p0(i64 4, ptr %19) #9
  %129 = load i32, ptr %7, align 4, !tbaa !16
  %130 = load i32, ptr %8, align 4, !tbaa !16
  %131 = load i32, ptr %9, align 4, !tbaa !16
  %132 = load ptr, ptr %20, align 8, !tbaa !8
  %133 = getelementptr inbounds ptr, ptr %132, i64 7
  %134 = load ptr, ptr %133, align 8
  %135 = call noundef i32 %134(ptr noundef nonnull align 8 dereferenceable(16) %20, i32 noundef %129, i32 noundef %130, i32 noundef %131)
  store i32 %135, ptr %19, align 4, !tbaa !16
  %136 = load i32, ptr %7, align 4, !tbaa !16
  %137 = load i32, ptr %8, align 4, !tbaa !16
  %138 = load i32, ptr %9, align 4, !tbaa !16
  %139 = load i32, ptr %19, align 4, !tbaa !16
  %140 = call noundef i32 @_ZN6icu_7717StringTrieBuilder18writeBranchSubNodeEiiii(ptr noundef nonnull align 8 dereferenceable(16) %20, i32 noundef %136, i32 noundef %137, i32 noundef %138, i32 noundef %139)
  %141 = load i32, ptr %19, align 4, !tbaa !16
  %142 = add nsw i32 %141, -1
  store i32 %142, ptr %19, align 4, !tbaa !16
  %143 = load ptr, ptr %20, align 8, !tbaa !8
  %144 = getelementptr inbounds ptr, ptr %143, i64 12
  %145 = load ptr, ptr %144, align 8
  %146 = call noundef i32 %145(ptr noundef nonnull align 8 dereferenceable(16) %20)
  %147 = icmp slt i32 %142, %146
  br i1 %147, label %148, label %150

148:                                              ; preds = %128
  %149 = load i32, ptr %19, align 4, !tbaa !16
  store i32 %149, ptr %12, align 4, !tbaa !16
  br label %156

150:                                              ; preds = %128
  %151 = load i32, ptr %19, align 4, !tbaa !16
  %152 = load ptr, ptr %20, align 8, !tbaa !8
  %153 = getelementptr inbounds ptr, ptr %152, i64 15
  %154 = load ptr, ptr %153, align 8
  %155 = call noundef i32 %154(ptr noundef nonnull align 8 dereferenceable(16) %20, i32 noundef %151)
  store i32 0, ptr %12, align 4, !tbaa !16
  br label %156

156:                                              ; preds = %150, %148
  call void @llvm.lifetime.end.p0(i64 4, ptr %19) #9
  br label %157

157:                                              ; preds = %156, %113
  %158 = load i8, ptr %10, align 1, !tbaa !21
  %159 = load i32, ptr %11, align 4, !tbaa !16
  %160 = load i32, ptr %12, align 4, !tbaa !16
  %161 = load ptr, ptr %20, align 8, !tbaa !8
  %162 = getelementptr inbounds ptr, ptr %161, i64 18
  %163 = load ptr, ptr %162, align 8
  %164 = call noundef i32 %163(ptr noundef nonnull align 8 dereferenceable(16) %20, i8 noundef signext %158, i32 noundef %159, i32 noundef %160)
  store i32 %164, ptr %5, align 4
  store i32 1, ptr %13, align 4
  call void @llvm.lifetime.end.p0(i64 4, ptr %15) #9
  call void @llvm.lifetime.end.p0(i64 4, ptr %14) #9
  br label %165

165:                                              ; preds = %157, %38
  call void @llvm.lifetime.end.p0(i64 4, ptr %12) #9
  call void @llvm.lifetime.end.p0(i64 4, ptr %11) #9
  call void @llvm.lifetime.end.p0(i64 1, ptr %10) #9
  %166 = load i32, ptr %5, align 4
  ret i32 %166
}