; Function Attrs: mustprogress uwtable
define noundef i32 @_ZN6icu_7717StringTrieBuilder9writeNodeEiii(ptr noundef nonnull align 8 dereferenceable(16) %0, i32 noundef %1, i32 noundef %2, i32 noundef %3) local_unnamed_addr #2 align 2 {
  %5 = load ptr, ptr %0, align 8, !tbaa !3
  %6 = getelementptr inbounds nuw i8, ptr %5, i64 24
  %7 = load ptr, ptr %6, align 8
  %8 = tail call noundef i32 %7(ptr noundef nonnull align 8 dereferenceable(16) %0, i32 noundef %1)
  %9 = icmp eq i32 %3, %8
  br i1 %9, label %10, label %22

10:                                               ; preds = %4
  %11 = add nsw i32 %1, 1
  %12 = load ptr, ptr %0, align 8, !tbaa !3
  %13 = getelementptr inbounds nuw i8, ptr %12, i64 40
  %14 = load ptr, ptr %13, align 8
  %15 = tail call noundef i32 %14(ptr noundef nonnull align 8 dereferenceable(16) %0, i32 noundef %1)
  %16 = icmp eq i32 %11, %2
  br i1 %16, label %17, label %22

17:                                               ; preds = %10
  %18 = load ptr, ptr %0, align 8, !tbaa !3
  %19 = getelementptr inbounds nuw i8, ptr %18, i64 136
  %20 = load ptr, ptr %19, align 8
  %21 = tail call noundef i32 %20(ptr noundef nonnull align 8 dereferenceable(16) %0, i32 noundef %15, i8 noundef signext 1)
  br label %93

22:                                               ; preds = %10, %4
  %.053 = phi i32 [ 0, %4 ], [ %15, %10 ]
  %.051 = phi i8 [ 0, %4 ], [ 1, %10 ]
  %.050 = phi i32 [ %1, %4 ], [ %11, %10 ]
  %23 = load ptr, ptr %0, align 8, !tbaa !3
  %24 = getelementptr inbounds nuw i8, ptr %23, i64 32
  %25 = load ptr, ptr %24, align 8
  %26 = tail call noundef zeroext i16 %25(ptr noundef nonnull align 8 dereferenceable(16) %0, i32 noundef %.050, i32 noundef %3)
  %27 = add nsw i32 %2, -1
  %28 = load ptr, ptr %0, align 8, !tbaa !3
  %29 = getelementptr inbounds nuw i8, ptr %28, i64 32
  %30 = load ptr, ptr %29, align 8
  %31 = tail call noundef zeroext i16 %30(ptr noundef nonnull align 8 dereferenceable(16) %0, i32 noundef %27, i32 noundef %3)
  %32 = icmp eq i16 %26, %31
  %33 = load ptr, ptr %0, align 8, !tbaa !3
  br i1 %32, label %34, label %73

34:                                               ; preds = %22
  %35 = getelementptr inbounds nuw i8, ptr %33, i64 48
  %36 = load ptr, ptr %35, align 8
  %37 = tail call noundef i32 %36(ptr noundef nonnull align 8 dereferenceable(16) %0, i32 noundef %.050, i32 noundef %27, i32 noundef %3)
  %38 = tail call noundef i32 @_ZN6icu_7717StringTrieBuilder9writeNodeEiii(ptr noundef nonnull align 8 dereferenceable(16) %0, i32 noundef %.050, i32 noundef %2, i32 noundef %37)
  %39 = sub nsw i32 %37, %3
  %40 = load ptr, ptr %0, align 8, !tbaa !3
  %41 = getelementptr inbounds nuw i8, ptr %40, i64 104
  %42 = load ptr, ptr %41, align 8
  %43 = tail call noundef i32 %42(ptr noundef nonnull align 8 dereferenceable(16) %0)
  %44 = icmp sgt i32 %39, %43
  br i1 %44, label %.lr.ph, label %._crit_edge

.lr.ph:                                           ; preds = %34
  %45 = add i32 %43, -1
  br label %46

46:                                               ; preds = %.lr.ph, %46
  %.04859 = phi i32 [ %39, %.lr.ph ], [ %48, %46 ]
  %.04958 = phi i32 [ %37, %.lr.ph ], [ %47, %46 ]
  %47 = sub nsw i32 %.04958, %43
  %48 = sub nsw i32 %.04859, %43
  %49 = load ptr, ptr %0, align 8, !tbaa !3
  %50 = getelementptr inbounds nuw i8, ptr %49, i64 128
  %51 = load ptr, ptr %50, align 8
  %52 = tail call noundef i32 %51(ptr noundef nonnull align 8 dereferenceable(16) %0, i32 noundef %.050, i32 noundef %47, i32 noundef %43)
  %53 = load ptr, ptr %0, align 8, !tbaa !3
  %54 = getelementptr inbounds nuw i8, ptr %53, i64 96
  %55 = load ptr, ptr %54, align 8
  %56 = tail call noundef i32 %55(ptr noundef nonnull align 8 dereferenceable(16) %0)
  %57 = add i32 %45, %56
  %58 = load ptr, ptr %0, align 8, !tbaa !3
  %59 = getelementptr inbounds nuw i8, ptr %58, i64 120
  %60 = load ptr, ptr %59, align 8
  %61 = tail call noundef i32 %60(ptr noundef nonnull align 8 dereferenceable(16) %0, i32 noundef %57)
  %62 = icmp sgt i32 %48, %43
  br i1 %62, label %46, label %._crit_edge, !llvm.loop !17

._crit_edge:                                      ; preds = %46, %34
  %.048.lcssa = phi i32 [ %39, %34 ], [ %48, %46 ]
  %63 = load ptr, ptr %0, align 8, !tbaa !3
  %64 = getelementptr inbounds nuw i8, ptr %63, i64 128
  %65 = load ptr, ptr %64, align 8
  %66 = tail call noundef i32 %65(ptr noundef nonnull align 8 dereferenceable(16) %0, i32 noundef %.050, i32 noundef %3, i32 noundef %.048.lcssa)
  %67 = load ptr, ptr %0, align 8, !tbaa !3
  %68 = getelementptr inbounds nuw i8, ptr %67, i64 96
  %69 = load ptr, ptr %68, align 8
  %70 = tail call noundef i32 %69(ptr noundef nonnull align 8 dereferenceable(16) %0)
  %71 = add i32 %.048.lcssa, -1
  %72 = add i32 %71, %70
  br label %88

73:                                               ; preds = %22
  %74 = getelementptr inbounds nuw i8, ptr %33, i64 56
  %75 = load ptr, ptr %74, align 8
  %76 = tail call noundef i32 %75(ptr noundef nonnull align 8 dereferenceable(16) %0, i32 noundef %.050, i32 noundef %2, i32 noundef %3)
  %77 = tail call noundef i32 @_ZN6icu_7717StringTrieBuilder18writeBranchSubNodeEiiii(ptr noundef nonnull align 8 dereferenceable(16) %0, i32 noundef %.050, i32 noundef %2, i32 noundef %3, i32 noundef %76)
  %78 = add nsw i32 %76, -1
  %79 = load ptr, ptr %0, align 8, !tbaa !3
  %80 = getelementptr inbounds nuw i8, ptr %79, i64 96
  %81 = load ptr, ptr %80, align 8
  %82 = tail call noundef i32 %81(ptr noundef nonnull align 8 dereferenceable(16) %0)
  %.not = icmp sgt i32 %76, %82
  br i1 %.not, label %83, label %88

83:                                               ; preds = %73
  %84 = load ptr, ptr %0, align 8, !tbaa !3
  %85 = getelementptr inbounds nuw i8, ptr %84, i64 120
  %86 = load ptr, ptr %85, align 8
  %87 = tail call noundef i32 %86(ptr noundef nonnull align 8 dereferenceable(16) %0, i32 noundef %78)
  br label %88

88:                                               ; preds = %83, %73, %._crit_edge
  %.052 = phi i32 [ %72, %._crit_edge ], [ 0, %83 ], [ %78, %73 ]
  %89 = load ptr, ptr %0, align 8, !tbaa !3
  %90 = getelementptr inbounds nuw i8, ptr %89, i64 144
  %91 = load ptr, ptr %90, align 8
  %92 = tail call noundef i32 %91(ptr noundef nonnull align 8 dereferenceable(16) %0, i8 noundef signext %.051, i32 noundef %.053, i32 noundef %.052)
  br label %93

93:                                               ; preds = %88, %17
  %.0 = phi i32 [ %21, %17 ], [ %92, %88 ]
  ret i32 %.0
}